; ModuleID = '19/366.c'
source_filename = "19/366.c"
target datalayout = "e-m:e-p270:32:32-p271:32:32-p272:64:64-i64:64-f80:128-n8:16:32:64-S128"
target triple = "x86_64-pc-linux-gnu"

@.str = private unnamed_addr constant [2 x i8] c" \00", align 1
@.str.1 = private unnamed_addr constant [3 x i8] c"%s\00", align 1

; Function Attrs: noinline nounwind uwtable
define dso_local void @main() #0 {
  %1 = alloca i8*, align 8
  %2 = alloca i8*, align 8
  %3 = alloca i8*, align 8
  %4 = alloca i8*, align 8
  %5 = alloca i32, align 4
  %6 = alloca i32, align 4
  %7 = alloca i32, align 4
  store i32 0, i32* %6, align 4
  store i32 0, i32* %7, align 4
  %8 = call noalias i8* @malloc(i64 100) #4
  store i8* %8, i8** %1, align 8
  %9 = call noalias i8* @malloc(i64 100) #4
  store i8* %9, i8** %2, align 8
  %10 = call noalias i8* @malloc(i64 100) #4
  store i8* %10, i8** %3, align 8
  %11 = call noalias i8* @malloc(i64 100) #4
  store i8* %11, i8** %4, align 8
  %12 = load i8*, i8** %1, align 8
  %13 = call i32 (i8*, ...) bitcast (i32 (...)* @gets to i32 (i8*, ...)*)(i8* %12)
  %14 = load i8*, i8** %2, align 8
  %15 = call i32 (i8*, ...) bitcast (i32 (...)* @gets to i32 (i8*, ...)*)(i8* %14)
  %16 = load i8*, i8** %3, align 8
  %17 = call i32 (i8*, ...) bitcast (i32 (...)* @gets to i32 (i8*, ...)*)(i8* %16)
  store i32 0, i32* %5, align 4
  br label %18

18:                                               ; preds = %66, %0
  %19 = load i8*, i8** %1, align 8
  %20 = load i32, i32* %5, align 4
  %21 = sext i32 %20 to i64
  %22 = getelementptr inbounds i8, i8* %19, i64 %21
  %23 = load i8, i8* %22, align 1
  %24 = icmp ne i8 %23, 0
  br i1 %24, label %25, label %69

25:                                               ; preds = %18
  %26 = load i8*, i8** %1, align 8
  %27 = load i32, i32* %5, align 4
  %28 = sext i32 %27 to i64
  %29 = getelementptr inbounds i8, i8* %26, i64 %28
  %30 = load i8, i8* %29, align 1
  %31 = sext i8 %30 to i32
  %32 = icmp eq i32 %31, 32
  br i1 %32, label %33, label %54

33:                                               ; preds = %25
  %34 = load i32, i32* %7, align 4
  %35 = icmp ne i32 %34, 0
  br i1 %35, label %36, label %38

36:                                               ; preds = %33
  %37 = call i32 (i8*, ...) @printf(i8* getelementptr inbounds ([2 x i8], [2 x i8]* @.str, i64 0, i64 0))
  br label %38

38:                                               ; preds = %36, %33
  store i32 1, i32* %7, align 4
  %39 = load i8*, i8** %4, align 8
  %40 = load i32, i32* %6, align 4
  %41 = sext i32 %40 to i64
  %42 = getelementptr inbounds i8, i8* %39, i64 %41
  store i8 0, i8* %42, align 1
  store i32 0, i32* %6, align 4
  %43 = load i8*, i8** %4, align 8
  %44 = load i8*, i8** %2, align 8
  %45 = call i32 @strcmp(i8* %43, i8* %44) #5
  %46 = icmp eq i32 %45, 0
  br i1 %46, label %47, label %50

47:                                               ; preds = %38
  %48 = load i8*, i8** %3, align 8
  %49 = call i32 (i8*, ...) @printf(i8* getelementptr inbounds ([3 x i8], [3 x i8]* @.str.1, i64 0, i64 0), i8* %48)
  br label %53

50:                                               ; preds = %38
  %51 = load i8*, i8** %4, align 8
  %52 = call i32 (i8*, ...) @printf(i8* getelementptr inbounds ([3 x i8], [3 x i8]* @.str.1, i64 0, i64 0), i8* %51)
  br label %53

53:                                               ; preds = %50, %47
  br label %66

54:                                               ; preds = %25
  %55 = load i8*, i8** %1, align 8
  %56 = load i32, i32* %5, align 4
  %57 = sext i32 %56 to i64
  %58 = getelementptr inbounds i8, i8* %55, i64 %57
  %59 = load i8, i8* %58, align 1
  %60 = load i8*, i8** %4, align 8
  %61 = load i32, i32* %6, align 4
  %62 = sext i32 %61 to i64
  %63 = getelementptr inbounds i8, i8* %60, i64 %62
  store i8 %59, i8* %63, align 1
  %64 = load i32, i32* %6, align 4
  %65 = add nsw i32 %64, 1
  store i32 %65, i32* %6, align 4
  br label %66

66:                                               ; preds = %54, %53
  %67 = load i32, i32* %5, align 4
  %68 = add nsw i32 %67, 1
  store i32 %68, i32* %5, align 4
  br label %18

69:                                               ; preds = %18
  %70 = load i8*, i8** %4, align 8
  %71 = load i32, i32* %6, align 4
  %72 = sext i32 %71 to i64
  %73 = getelementptr inbounds i8, i8* %70, i64 %72
  store i8 0, i8* %73, align 1
  %74 = load i32, i32* %7, align 4
  %75 = icmp ne i32 %74, 0
  br i1 %75, label %76, label %78

76:                                               ; preds = %69
  %77 = call i32 (i8*, ...) @printf(i8* getelementptr inbounds ([2 x i8], [2 x i8]* @.str, i64 0, i64 0))
  br label %78

78:                                               ; preds = %76, %69
  %79 = load i8*, i8** %4, align 8
  %80 = load i8*, i8** %2, align 8
  %81 = call i32 @strcmp(i8* %79, i8* %80) #5
  %82 = icmp eq i32 %81, 0
  br i1 %82, label %83, label %86

83:                                               ; preds = %78
  %84 = load i8*, i8** %3, align 8
  %85 = call i32 (i8*, ...) @printf(i8* getelementptr inbounds ([3 x i8], [3 x i8]* @.str.1, i64 0, i64 0), i8* %84)
  br label %89

86:                                               ; preds = %78
  %87 = load i8*, i8** %4, align 8
  %88 = call i32 (i8*, ...) @printf(i8* getelementptr inbounds ([3 x i8], [3 x i8]* @.str.1, i64 0, i64 0), i8* %87)
  br label %89

89:                                               ; preds = %86, %83
  ret void
}

; Function Attrs: nounwind
declare dso_local noalias i8* @malloc(i64) #1

declare dso_local i32 @gets(...) #2

declare dso_local i32 @printf(i8*, ...) #2

; Function Attrs: nounwind readonly
declare dso_local i32 @strcmp(i8*, i8*) #3


!llvm.module.flags = !{!0}
!llvm.ident = !{!1}

!0 = !{i32 1, !"wchar_size", i32 4}
!1 = !{!"clang version 10.0.0-4ubuntu1 "}
