; ModuleID = 'source-C-CXX/18/366.c'
source_filename = "source-C-CXX/18/366.c"
target datalayout = "e-m:e-p270:32:32-p271:32:32-p272:64:64-i64:64-f80:128-n8:16:32:64-S128"
target triple = "x86_64-pc-linux-gnu"

@.str.1 = private unnamed_addr constant [3 x i8] c"%s\00", align 1

; Function Attrs: nounwind sspstrong uwtable
define dso_local void @main() local_unnamed_addr #0 {
  %1 = tail call noalias align 16 dereferenceable_or_null(100) i8* @malloc(i64 100) #6
  %2 = tail call noalias align 16 dereferenceable_or_null(100) i8* @malloc(i64 100) #6
  %3 = tail call noalias align 16 dereferenceable_or_null(100) i8* @malloc(i64 100) #6
  %4 = tail call noalias align 16 dereferenceable_or_null(100) i8* @malloc(i64 100) #6
  %5 = tail call i32 (i8*, ...) bitcast (i32 (...)* @gets to i32 (i8*, ...)*)(i8* %1) #6
  %6 = tail call i32 (i8*, ...) bitcast (i32 (...)* @gets to i32 (i8*, ...)*)(i8* %2) #6
  %7 = tail call i32 (i8*, ...) bitcast (i32 (...)* @gets to i32 (i8*, ...)*)(i8* %3) #6
  br label %8

8:                                                ; preds = %31, %0
  %9 = phi i64 [ %34, %31 ], [ 0, %0 ]
  %10 = phi i32 [ %32, %31 ], [ 0, %0 ]
  %11 = phi i32 [ %33, %31 ], [ 0, %0 ]
  %12 = getelementptr inbounds i8, i8* %1, i64 %9
  %13 = load i8, i8* %12, align 1, !tbaa !5
  switch i8 %13, label %27 [
    i8 0, label %35
    i8 32, label %14
  ]

14:                                               ; preds = %8
  %15 = icmp eq i32 %11, 0
  br i1 %15, label %18, label %16

16:                                               ; preds = %14
  %17 = tail call i32 @putchar(i32 32)
  br label %18

18:                                               ; preds = %16, %14
  %19 = sext i32 %10 to i64
  %20 = getelementptr inbounds i8, i8* %4, i64 %19
  store i8 0, i8* %20, align 1, !tbaa !5
  %21 = tail call i32 @strcmp(i8* noundef nonnull dereferenceable(1) %4, i8* noundef nonnull dereferenceable(1) %2) #7
  %22 = icmp eq i32 %21, 0
  br i1 %22, label %23, label %25

23:                                               ; preds = %18
  %24 = tail call i32 (i8*, ...) @printf(i8* nonnull dereferenceable(1) getelementptr inbounds ([3 x i8], [3 x i8]* @.str.1, i64 0, i64 0), i8* %3)
  br label %31

25:                                               ; preds = %18
  %26 = tail call i32 (i8*, ...) @printf(i8* nonnull dereferenceable(1) getelementptr inbounds ([3 x i8], [3 x i8]* @.str.1, i64 0, i64 0), i8* nonnull %4)
  br label %31

27:                                               ; preds = %8
  %28 = sext i32 %10 to i64
  %29 = getelementptr inbounds i8, i8* %4, i64 %28
  store i8 %13, i8* %29, align 1, !tbaa !5
  %30 = add nsw i32 %10, 1
  br label %31

31:                                               ; preds = %23, %25, %27
  %32 = phi i32 [ 0, %23 ], [ 0, %25 ], [ %30, %27 ]
  %33 = phi i32 [ 1, %23 ], [ 1, %25 ], [ %11, %27 ]
  %34 = add nuw i64 %9, 1
  br label %8, !llvm.loop !8

35:                                               ; preds = %8
  %36 = sext i32 %10 to i64
  %37 = getelementptr inbounds i8, i8* %4, i64 %36
  store i8 0, i8* %37, align 1, !tbaa !5
  %38 = icmp eq i32 %11, 0
  br i1 %38, label %41, label %39

39:                                               ; preds = %35
  %40 = tail call i32 @putchar(i32 32)
  br label %41

41:                                               ; preds = %39, %35
  %42 = tail call i32 @strcmp(i8* noundef nonnull dereferenceable(1) %4, i8* noundef nonnull dereferenceable(1) %2) #7
  %43 = icmp eq i32 %42, 0
  br i1 %43, label %44, label %46

44:                                               ; preds = %41
  %45 = tail call i32 (i8*, ...) @printf(i8* nonnull dereferenceable(1) getelementptr inbounds ([3 x i8], [3 x i8]* @.str.1, i64 0, i64 0), i8* %3)
  br label %48

46:                                               ; preds = %41
  %47 = tail call i32 (i8*, ...) @printf(i8* nonnull dereferenceable(1) getelementptr inbounds ([3 x i8], [3 x i8]* @.str.1, i64 0, i64 0), i8* nonnull %4)
  br label %48

48:                                               ; preds = %46, %44
  ret void
}

; Function Attrs: inaccessiblememonly mustprogress nofree nounwind willreturn
declare noalias noundef align 16 i8* @malloc(i64 noundef) local_unnamed_addr #1

declare i32 @gets(...) local_unnamed_addr #2

; Function Attrs: nofree nounwind
declare noundef i32 @printf(i8* nocapture noundef readonly, ...) local_unnamed_addr #3

; Function Attrs: argmemonly mustprogress nofree nounwind readonly willreturn
declare i32 @strcmp(i8* nocapture, i8* nocapture) local_unnamed_addr #4

; Function Attrs: nofree nounwind
declare noundef i32 @putchar(i32 noundef) local_unnamed_addr #5


!llvm.module.flags = !{!0, !1, !2, !3}
!llvm.ident = !{!4}

!0 = !{i32 1, !"wchar_size", i32 4}
!1 = !{i32 7, !"PIC Level", i32 2}
!2 = !{i32 7, !"PIE Level", i32 2}
!3 = !{i32 7, !"uwtable", i32 1}
!4 = !{!"clang version 13.0.0"}
!5 = !{!6, !6, i64 0}
!6 = !{!"omnipotent char", !7, i64 0}
!7 = !{!"Simple C/C++ TBAA"}
!8 = distinct !{!8, !9}
!9 = !{!"llvm.loop.mustprogress"}
